target datalayout = "e-m:e-p270:32:32-p271:32:32-p272:64:64-i64:64-i128:128-f80:128-n8:16:32:64-S128"
target triple = "x86_64-pc-linux-gnu"

%union.ListCell = type { ptr }
%struct.Query = type { i32, i32, i32, i64, i8, ptr, i32, i8, i8, i8, i8, i8, i8, i8, i8, i8, i8, i8, ptr, ptr, ptr, ptr, ptr, i32, ptr, ptr, i32, ptr, ptr, ptr, ptr, ptr, i8, ptr, ptr, ptr, ptr, ptr, ptr, ptr, i32, ptr, ptr, ptr, ptr, i32, i32 }
%struct.List = type { i32, i32, i32, ptr, [0 x %union.ListCell] }
%struct.RangeTblEntry = type { i32, ptr, ptr, i32, i32, i8, i8, i32, i32, ptr, ptr, i8, i32, i32, ptr, ptr, ptr, ptr, ptr, i8, ptr, ptr, ptr, i32, i8, ptr, ptr, ptr, ptr, double, ptr, i8, i8, ptr }
%struct.RangeTblRef = type { i32, i32 }
%struct.Node = type { i32 }
%struct.SetOperationStmt = type { i32, i32, i8, ptr, ptr, ptr, ptr, ptr, ptr }

@.str.2 = private unnamed_addr constant [15 x i8] c"prepjointree.c\00", align 1
@.str.5 = private unnamed_addr constant [27 x i8] c"unrecognized node type: %d\00", align 1
@__func__.is_simple_union_all_recurse = private unnamed_addr constant [28 x i8] c"is_simple_union_all_recurse\00", align 1

; Function Attrs: inlinehint nounwind uwtable
define internal ptr @list_nth_cell(ptr noundef %0, i32 noundef %1) #3 {
  %3 = alloca ptr, align 8
  %4 = alloca i32, align 4
  store ptr %0, ptr %3, align 8
  store i32 %1, ptr %4, align 4
  %5 = load ptr, ptr %3, align 8
  %6 = getelementptr inbounds nuw %struct.List, ptr %5, i32 0, i32 3
  %7 = load ptr, ptr %6, align 8
  %8 = load i32, ptr %4, align 4
  %9 = sext i32 %8 to i64
  %10 = getelementptr inbounds %union.ListCell, ptr %7, i64 %9
  ret ptr %10
}

; Function Attrs: inlinehint nounwind uwtable
define internal ptr @list_nth(ptr noundef %0, i32 noundef %1) #3 {
  %3 = alloca ptr, align 8
  %4 = alloca i32, align 4
  store ptr %0, ptr %3, align 8
  store i32 %1, ptr %4, align 4
  %5 = load ptr, ptr %3, align 8
  %6 = load i32, ptr %4, align 4
  %7 = call ptr @list_nth_cell(ptr noundef %5, i32 noundef %6)
  %8 = load ptr, ptr %7, align 8
  ret ptr %8
}

; Function Attrs: nounwind uwtable
define internal zeroext i1 @is_simple_union_all_recurse(ptr noundef %0, ptr noundef %1, ptr noundef %2) #0 {
  %4 = alloca i1, align 1
  %5 = alloca ptr, align 8
  %6 = alloca ptr, align 8
  %7 = alloca ptr, align 8
  %8 = alloca ptr, align 8
  %9 = alloca ptr, align 8
  %10 = alloca ptr, align 8
  %11 = alloca ptr, align 8
  %12 = alloca i32, align 4
  store ptr %0, ptr %5, align 8
  store ptr %1, ptr %6, align 8
  store ptr %2, ptr %7, align 8
  call void @check_stack_depth()
  %13 = load ptr, ptr %5, align 8
  %14 = getelementptr inbounds nuw %struct.Node, ptr %13, i32 0, i32 0
  %15 = load i32, ptr %14, align 4
  %16 = icmp eq i32 %15, 63
  br i1 %16, label %17, label %35

17:                                               ; preds = %3
  call void @llvm.lifetime.start.p0(i64 8, ptr %8) #8
  %18 = load ptr, ptr %5, align 8
  store ptr %18, ptr %8, align 8
  call void @llvm.lifetime.start.p0(i64 8, ptr %9) #8
  %19 = load ptr, ptr %6, align 8
  %20 = getelementptr inbounds nuw %struct.Query, ptr %19, i32 0, i32 19
  %21 = load ptr, ptr %20, align 8
  %22 = load ptr, ptr %8, align 8
  %23 = getelementptr inbounds nuw %struct.RangeTblRef, ptr %22, i32 0, i32 1
  %24 = load i32, ptr %23, align 4
  %25 = sub i32 %24, 1
  %26 = call ptr @list_nth(ptr noundef %21, i32 noundef %25)
  store ptr %26, ptr %9, align 8
  call void @llvm.lifetime.start.p0(i64 8, ptr %10) #8
  %27 = load ptr, ptr %9, align 8
  %28 = getelementptr inbounds nuw %struct.RangeTblEntry, ptr %27, i32 0, i32 10
  %29 = load ptr, ptr %28, align 8
  store ptr %29, ptr %10, align 8
  %30 = load ptr, ptr %10, align 8
  %31 = getelementptr inbounds nuw %struct.Query, ptr %30, i32 0, i32 25
  %32 = load ptr, ptr %31, align 8
  %33 = load ptr, ptr %7, align 8
  %34 = call zeroext i1 @tlist_same_datatypes(ptr noundef %32, ptr noundef %33, i1 noundef zeroext true)
  store i1 %34, ptr %4, align 1
  call void @llvm.lifetime.end.p0(i64 8, ptr %10) #8
  call void @llvm.lifetime.end.p0(i64 8, ptr %9) #8
  call void @llvm.lifetime.end.p0(i64 8, ptr %8) #8
  br label %82

35:                                               ; preds = %3
  %36 = load ptr, ptr %5, align 8
  %37 = getelementptr inbounds nuw %struct.Node, ptr %36, i32 0, i32 0
  %38 = load i32, ptr %37, align 4
  %39 = icmp eq i32 %38, 142
  br i1 %39, label %40, label %69

40:                                               ; preds = %35
  call void @llvm.lifetime.start.p0(i64 8, ptr %11) #8
  %41 = load ptr, ptr %5, align 8
  store ptr %41, ptr %11, align 8
  %42 = load ptr, ptr %11, align 8
  %43 = getelementptr inbounds nuw %struct.SetOperationStmt, ptr %42, i32 0, i32 1
  %44 = load i32, ptr %43, align 4
  %45 = icmp ne i32 %44, 1
  br i1 %45, label %51, label %46

46:                                               ; preds = %40
  %47 = load ptr, ptr %11, align 8
  %48 = getelementptr inbounds nuw %struct.SetOperationStmt, ptr %47, i32 0, i32 2
  %49 = load i8, ptr %48, align 8, !range !7, !noundef !8
  %50 = trunc i8 %49 to i1
  br i1 %50, label %52, label %51

51:                                               ; preds = %46, %40
  store i1 false, ptr %4, align 1
  store i32 1, ptr %12, align 4
  br label %68

52:                                               ; preds = %46
  %53 = load ptr, ptr %11, align 8
  %54 = getelementptr inbounds nuw %struct.SetOperationStmt, ptr %53, i32 0, i32 3
  %55 = load ptr, ptr %54, align 8
  %56 = load ptr, ptr %6, align 8
  %57 = load ptr, ptr %7, align 8
  %58 = call zeroext i1 @is_simple_union_all_recurse(ptr noundef %55, ptr noundef %56, ptr noundef %57)
  br i1 %58, label %59, label %66

59:                                               ; preds = %52
  %60 = load ptr, ptr %11, align 8
  %61 = getelementptr inbounds nuw %struct.SetOperationStmt, ptr %60, i32 0, i32 4
  %62 = load ptr, ptr %61, align 8
  %63 = load ptr, ptr %6, align 8
  %64 = load ptr, ptr %7, align 8
  %65 = call zeroext i1 @is_simple_union_all_recurse(ptr noundef %62, ptr noundef %63, ptr noundef %64)
  br label %66

66:                                               ; preds = %59, %52
  %67 = phi i1 [ false, %52 ], [ %65, %59 ]
  store i1 %67, ptr %4, align 1
  store i32 1, ptr %12, align 4
  br label %68

68:                                               ; preds = %66, %51
  call void @llvm.lifetime.end.p0(i64 8, ptr %11) #8
  br label %82

69:                                               ; preds = %35
  br label %70

70:                                               ; preds = %69
  br i1 true, label %71, label %73

71:                                               ; preds = %70
  %72 = call zeroext i1 @errstart_cold(i32 noundef 21, ptr noundef null) #9
  br i1 %72, label %75, label %80

73:                                               ; preds = %70
  %74 = call zeroext i1 @errstart(i32 noundef 21, ptr noundef null)
  br i1 %74, label %75, label %80

75:                                               ; preds = %73, %71
  %76 = load ptr, ptr %5, align 8
  %77 = getelementptr inbounds nuw %struct.Node, ptr %76, i32 0, i32 0
  %78 = load i32, ptr %77, align 4
  %79 = call i32 (ptr, ...) @errmsg_internal(ptr noundef @.str.5, i32 noundef %78)
  call void @errfinish(ptr noundef @.str.2, i32 noundef 2127, ptr noundef @__func__.is_simple_union_all_recurse)
  br label %80

80:                                               ; preds = %75, %73, %71
  unreachable

81:                                               ; No predecessors!
  store i1 false, ptr %4, align 1
  br label %82

82:                                               ; preds = %81, %68, %17
  %83 = load i1, ptr %4, align 1
  ret i1 %83
}