; Function Attrs: nounwind uwtable
define internal fastcc zeroext i1 @is_simple_union_all_recurse(ptr noundef readonly captures(none) %0, ptr noundef readonly captures(none) %1, ptr noundef %2) unnamed_addr #0 {
  br label %tailrecurse

tailrecurse:                                      ; preds = %31, %3
  %.tr = phi ptr [ %0, %3 ], [ %33, %31 ]
  tail call void @check_stack_depth() #7
  %4 = load i32, ptr %.tr, align 4
  switch i32 %4, label %34 [
    i32 63, label %5
    i32 142, label %20
  ]

5:                                                ; preds = %tailrecurse
  %6 = getelementptr inbounds nuw i8, ptr %1, i64 64
  %7 = load ptr, ptr %6, align 8
  %8 = getelementptr inbounds nuw i8, ptr %.tr, i64 4
  %9 = load i32, ptr %8, align 4
  %10 = add i32 %9, -1
  %11 = getelementptr i8, ptr %7, i64 16
  %.val = load ptr, ptr %11, align 8
  %12 = sext i32 %10 to i64
  %13 = getelementptr inbounds %union.ListCell, ptr %.val, i64 %12
  %14 = load ptr, ptr %13, align 8
  %15 = getelementptr inbounds nuw i8, ptr %14, i64 56
  %16 = load ptr, ptr %15, align 8
  %17 = getelementptr inbounds nuw i8, ptr %16, i64 112
  %18 = load ptr, ptr %17, align 8
  %19 = tail call zeroext i1 @tlist_same_datatypes(ptr noundef %18, ptr noundef %2, i1 noundef zeroext true) #7
  br label %.loopexit

20:                                               ; preds = %tailrecurse
  %21 = getelementptr inbounds nuw i8, ptr %.tr, i64 4
  %22 = load i32, ptr %21, align 4
  %.not = icmp eq i32 %22, 1
  br i1 %.not, label %23, label %.loopexit

23:                                               ; preds = %20
  %24 = getelementptr inbounds nuw i8, ptr %.tr, i64 8
  %25 = load i8, ptr %24, align 8, !range !4, !noundef !5
  %26 = trunc nuw i8 %25 to i1
  br i1 %26, label %27, label %.loopexit

27:                                               ; preds = %23
  %28 = getelementptr inbounds nuw i8, ptr %.tr, i64 16
  %29 = load ptr, ptr %28, align 8
  %30 = tail call fastcc zeroext i1 @is_simple_union_all_recurse(ptr noundef %29, ptr noundef %1, ptr noundef %2)
  br i1 %30, label %31, label %.loopexit

31:                                               ; preds = %27
  %32 = getelementptr inbounds nuw i8, ptr %.tr, i64 24
  %33 = load ptr, ptr %32, align 8
  br label %tailrecurse

34:                                               ; preds = %tailrecurse
  %35 = tail call zeroext i1 @errstart_cold(i32 noundef 21, ptr noundef null) #8
  tail call void @llvm.assume(i1 %35)
  %36 = load i32, ptr %.tr, align 4
  %37 = tail call i32 (ptr, ...) @errmsg_internal(ptr noundef nonnull @.str.5, i32 noundef %36) #7
  tail call void @errfinish(ptr noundef nonnull @.str.2, i32 noundef 2127, ptr noundef nonnull @__func__.is_simple_union_all_recurse) #7
  unreachable

.loopexit:                                        ; preds = %23, %20, %27, %5
  %.0 = phi i1 [ %19, %5 ], [ false, %27 ], [ false, %20 ], [ false, %23 ]
  ret i1 %.0
}